target datalayout = "e-m:e-p270:32:32-p271:32:32-p272:64:64-i64:64-i128:128-f80:128-n8:16:32:64-S128"
target triple = "x86_64-pc-linux-gnu"

@stdout = external global ptr, align 8
@.str.51 = private unnamed_addr constant [2 x i8] c":\00", align 1
@.str.52 = private unnamed_addr constant [6 x i8] c"%s/%s\00", align 1
@.str.53 = private unnamed_addr constant [15 x i8] c"Using file %s\0A\00", align 1

; Function Attrs: nounwind uwtable
define ptr @Io_FileOpen(ptr noundef %0, ptr noundef %1, ptr noundef %2, i32 noundef %3) #0 {
  %5 = alloca ptr, align 8
  %6 = alloca ptr, align 8
  %7 = alloca ptr, align 8
  %8 = alloca ptr, align 8
  %9 = alloca i32, align 4
  %10 = alloca ptr, align 8
  %11 = alloca ptr, align 8
  %12 = alloca ptr, align 8
  %13 = alloca [4096 x i8], align 16
  %14 = alloca ptr, align 8
  store ptr %0, ptr %6, align 8
  store ptr %1, ptr %7, align 8
  store ptr %2, ptr %8, align 8
  store i32 %3, ptr %9, align 4
  store ptr null, ptr %10, align 8
  store ptr null, ptr %11, align 8
  %15 = load ptr, ptr %7, align 8
  %16 = icmp eq ptr %15, null
  br i1 %16, label %17, label %21

17:                                               ; preds = %4
  %18 = load ptr, ptr %6, align 8
  %19 = load ptr, ptr %8, align 8
  %20 = call noalias ptr @fopen(ptr noundef %18, ptr noundef %19)
  store ptr %20, ptr %5, align 8
  br label %71

21:                                               ; preds = %4
  %22 = load ptr, ptr %7, align 8
  %23 = call ptr @Abc_FrameReadFlag(ptr noundef %22)
  store ptr %23, ptr %11, align 8
  %24 = icmp ne ptr %23, null
  br i1 %24, label %25, label %67

25:                                               ; preds = %21
  store ptr null, ptr %14, align 8
  %26 = load ptr, ptr %11, align 8
  %27 = call ptr @Extra_UtilStrsav(ptr noundef %26)
  store ptr %27, ptr %10, align 8
  %28 = load ptr, ptr %10, align 8
  %29 = call ptr @strtok(ptr noundef %28, ptr noundef @.str.51) #9
  store ptr %29, ptr %12, align 8
  br label %30

30:                                               ; preds = %58, %25
  %31 = load ptr, ptr %12, align 8
  %32 = icmp ne ptr %31, null
  br i1 %32, label %33, label %60

33:                                               ; preds = %30
  %34 = getelementptr inbounds [4096 x i8], ptr %13, i64 0, i64 0
  %35 = load ptr, ptr %12, align 8
  %36 = load ptr, ptr %6, align 8
  %37 = call i32 (ptr, i64, ptr, ...) @snprintf(ptr noundef %34, i64 noundef 4096, ptr noundef @.str.52, ptr noundef %35, ptr noundef %36) #9
  %38 = getelementptr inbounds [4096 x i8], ptr %13, i64 0, i64 0
  %39 = load ptr, ptr %8, align 8
  %40 = call noalias ptr @fopen(ptr noundef %38, ptr noundef %39)
  store ptr %40, ptr %14, align 8
  %41 = icmp ne ptr %40, null
  br i1 %41, label %42, label %57

42:                                               ; preds = %33
  %43 = load i32, ptr %9, align 4
  %44 = icmp ne i32 %43, 0
  br i1 %44, label %45, label %49

45:                                               ; preds = %42
  %46 = load ptr, ptr @stdout, align 8
  %47 = getelementptr inbounds [4096 x i8], ptr %13, i64 0, i64 0
  %48 = call i32 (ptr, ptr, ...) @fprintf(ptr noundef %46, ptr noundef @.str.53, ptr noundef %47) #9
  br label %49

49:                                               ; preds = %45, %42
  %50 = load ptr, ptr %10, align 8
  %51 = icmp ne ptr %50, null
  br i1 %51, label %52, label %54

52:                                               ; preds = %49
  %53 = load ptr, ptr %10, align 8
  call void @free(ptr noundef %53) #9
  store ptr null, ptr %10, align 8
  br label %55

54:                                               ; preds = %49
  br label %55

55:                                               ; preds = %54, %52
  %56 = load ptr, ptr %14, align 8
  store ptr %56, ptr %5, align 8
  br label %71

57:                                               ; preds = %33
  br label %58

58:                                               ; preds = %57
  %59 = call ptr @strtok(ptr noundef null, ptr noundef @.str.51) #9
  store ptr %59, ptr %12, align 8
  br label %30, !llvm.loop !11

60:                                               ; preds = %30
  %61 = load ptr, ptr %10, align 8
  %62 = icmp ne ptr %61, null
  br i1 %62, label %63, label %65

63:                                               ; preds = %60
  %64 = load ptr, ptr %10, align 8
  call void @free(ptr noundef %64) #9
  store ptr null, ptr %10, align 8
  br label %66

65:                                               ; preds = %60
  br label %66

66:                                               ; preds = %65, %63
  store ptr null, ptr %5, align 8
  br label %71

67:                                               ; preds = %21
  %68 = load ptr, ptr %6, align 8
  %69 = load ptr, ptr %8, align 8
  %70 = call noalias ptr @fopen(ptr noundef %68, ptr noundef %69)
  store ptr %70, ptr %5, align 8
  br label %71

71:                                               ; preds = %67, %66, %55, %17
  %72 = load ptr, ptr %5, align 8
  ret ptr %72
}