; Function Attrs: nounwind uwtable
define noalias noundef ptr @Io_FileOpen(ptr noundef %0, ptr noundef %1, ptr noundef readonly captures(none) %2, i32 noundef %3) local_unnamed_addr #0 {
  %5 = alloca [4096 x i8], align 16
  %6 = icmp eq ptr %1, null
  br i1 %6, label %7, label %9

7:                                                ; preds = %4
  %8 = tail call noalias ptr @fopen(ptr noundef %0, ptr noundef %2)
  br label %27

9:                                                ; preds = %4
  %10 = tail call ptr @Abc_FrameReadFlag(ptr noundef nonnull %1) #14
  %.not = icmp eq ptr %10, null
  br i1 %.not, label %25, label %11

11:                                               ; preds = %9
  %12 = tail call ptr @Extra_UtilStrsav(ptr noundef nonnull %10) #14
  %13 = tail call ptr @strtok(ptr noundef %12, ptr noundef nonnull @.str.51) #14
  %.not2328 = icmp eq ptr %13, null
  br i1 %.not2328, label %._crit_edge, label %.lr.ph

.lr.ph:                                           ; preds = %11, %22
  %.029 = phi ptr [ %23, %22 ], [ %13, %11 ]
  %14 = call i32 (ptr, i64, ptr, ...) @snprintf(ptr noundef nonnull dereferenceable(1) %5, i64 noundef 4096, ptr noundef nonnull @.str.52, ptr noundef nonnull %.029, ptr noundef %0) #14
  %15 = call noalias ptr @fopen(ptr noundef nonnull %5, ptr noundef %2)
  %.not25 = icmp eq ptr %15, null
  br i1 %.not25, label %22, label %16

16:                                               ; preds = %.lr.ph
  %.not26 = icmp eq i32 %3, 0
  br i1 %.not26, label %20, label %17

17:                                               ; preds = %16
  %18 = load ptr, ptr @stdout, align 8
  %19 = call i32 (ptr, ptr, ...) @fprintf(ptr noundef %18, ptr noundef nonnull @.str.53, ptr noundef nonnull %5) #14
  br label %20

20:                                               ; preds = %17, %16
  %.not27 = icmp eq ptr %12, null
  br i1 %.not27, label %27, label %21

21:                                               ; preds = %20
  call void @free(ptr noundef nonnull %12) #14
  br label %27

22:                                               ; preds = %.lr.ph
  %23 = tail call ptr @strtok(ptr noundef null, ptr noundef nonnull @.str.51) #14
  %.not23 = icmp eq ptr %23, null
  br i1 %.not23, label %._crit_edge, label %.lr.ph, !llvm.loop !11

._crit_edge:                                      ; preds = %22, %11
  %.not24 = icmp eq ptr %12, null
  br i1 %.not24, label %27, label %24

24:                                               ; preds = %._crit_edge
  tail call void @free(ptr noundef nonnull %12) #14
  br label %27

25:                                               ; preds = %9
  %26 = tail call noalias ptr @fopen(ptr noundef %0, ptr noundef %2)
  br label %27

27:                                               ; preds = %24, %._crit_edge, %21, %20, %25, %7
  %.018 = phi ptr [ %8, %7 ], [ %26, %25 ], [ %15, %20 ], [ %15, %21 ], [ null, %._crit_edge ], [ null, %24 ]
  ret ptr %.018
}